target datalayout = "e-m:e-p270:32:32-p271:32:32-p272:64:64-i64:64-i128:128-f80:128-n8:16:32:64-S128"
target triple = "x86_64-pc-linux-gnu"

%struct._zend_smm_shared_globals = type { ptr, i32, i64, i64, i8, %struct._zend_shared_memory_state, ptr, ptr, i64 }
%struct._zend_shared_memory_state = type { ptr, i64 }
%struct._zend_shared_segment = type { i64, i64, i64, ptr }

@smm_shared_globals = hidden global ptr null, align 8

; Function Attrs: nounwind uwtable
define hidden void @zend_shared_alloc_restore_state() #0 {
  %1 = alloca i32, align 4
  store i32 0, ptr %1, align 4
  br label %2

2:                                                ; preds = %25, %0
  %3 = load i32, ptr %1, align 4
  %4 = load ptr, ptr @smm_shared_globals, align 8
  %5 = getelementptr inbounds %struct._zend_smm_shared_globals, ptr %4, i32 0, i32 1
  %6 = load i32, ptr %5, align 8
  %7 = icmp slt i32 %3, %6
  br i1 %7, label %8, label %28

8:                                                ; preds = %2
  %9 = load ptr, ptr @smm_shared_globals, align 8
  %10 = getelementptr inbounds %struct._zend_smm_shared_globals, ptr %9, i32 0, i32 5
  %11 = getelementptr inbounds %struct._zend_shared_memory_state, ptr %10, i32 0, i32 0
  %12 = load ptr, ptr %11, align 8
  %13 = load i32, ptr %1, align 4
  %14 = sext i32 %13 to i64
  %15 = getelementptr inbounds i64, ptr %12, i64 %14
  %16 = load i64, ptr %15, align 8
  %17 = load ptr, ptr @smm_shared_globals, align 8
  %18 = getelementptr inbounds %struct._zend_smm_shared_globals, ptr %17, i32 0, i32 0
  %19 = load ptr, ptr %18, align 8
  %20 = load i32, ptr %1, align 4
  %21 = sext i32 %20 to i64
  %22 = getelementptr inbounds ptr, ptr %19, i64 %21
  %23 = load ptr, ptr %22, align 8
  %24 = getelementptr inbounds %struct._zend_shared_segment, ptr %23, i32 0, i32 2
  store i64 %16, ptr %24, align 8
  br label %25

25:                                               ; preds = %8
  %26 = load i32, ptr %1, align 4
  %27 = add nsw i32 %26, 1
  store i32 %27, ptr %1, align 4
  br label %2

28:                                               ; preds = %2
  %29 = load ptr, ptr @smm_shared_globals, align 8
  %30 = getelementptr inbounds %struct._zend_smm_shared_globals, ptr %29, i32 0, i32 5
  %31 = getelementptr inbounds %struct._zend_shared_memory_state, ptr %30, i32 0, i32 1
  %32 = load i64, ptr %31, align 8
  %33 = load ptr, ptr @smm_shared_globals, align 8
  %34 = getelementptr inbounds %struct._zend_smm_shared_globals, ptr %33, i32 0, i32 2
  store i64 %32, ptr %34, align 8
  %35 = load ptr, ptr @smm_shared_globals, align 8
  %36 = getelementptr inbounds %struct._zend_smm_shared_globals, ptr %35, i32 0, i32 4
  store i8 0, ptr %36, align 8
  %37 = load ptr, ptr @smm_shared_globals, align 8
  %38 = getelementptr inbounds %struct._zend_smm_shared_globals, ptr %37, i32 0, i32 3
  store i64 0, ptr %38, align 8
  ret void
}