; Function Attrs: nofree norecurse nosync nounwind memory(readwrite, inaccessiblemem: none) uwtable
define hidden void @zend_shared_alloc_restore_state() local_unnamed_addr #16 {
  %1 = load ptr, ptr @smm_shared_globals, align 8
  %2 = getelementptr inbounds i8, ptr %1, i64 8
  %3 = load i32, ptr %2, align 8
  %4 = icmp sgt i32 %3, 0
  br i1 %4, label %.lr.ph, label %._crit_edge

.lr.ph:                                           ; preds = %0
  %5 = getelementptr inbounds i8, ptr %1, i64 40
  br label %6

6:                                                ; preds = %.lr.ph, %6
  %indvars.iv = phi i64 [ 0, %.lr.ph ], [ %indvars.iv.next, %6 ]
  %7 = load ptr, ptr %5, align 8
  %8 = getelementptr inbounds i64, ptr %7, i64 %indvars.iv
  %9 = load i64, ptr %8, align 8
  %10 = load ptr, ptr %1, align 8
  %11 = getelementptr inbounds ptr, ptr %10, i64 %indvars.iv
  %12 = load ptr, ptr %11, align 8
  %13 = getelementptr inbounds i8, ptr %12, i64 16
  store i64 %9, ptr %13, align 8
  %indvars.iv.next = add nuw nsw i64 %indvars.iv, 1
  %14 = load i32, ptr %2, align 8
  %15 = sext i32 %14 to i64
  %16 = icmp slt i64 %indvars.iv.next, %15
  br i1 %16, label %6, label %._crit_edge

._crit_edge:                                      ; preds = %6, %0
  %17 = getelementptr inbounds i8, ptr %1, i64 48
  %18 = load i64, ptr %17, align 8
  %19 = getelementptr inbounds i8, ptr %1, i64 16
  store i64 %18, ptr %19, align 8
  %20 = getelementptr inbounds i8, ptr %1, i64 32
  store i8 0, ptr %20, align 8
  %21 = getelementptr inbounds i8, ptr %1, i64 24
  store i64 0, ptr %21, align 8
  ret void
}